target datalayout = "e-m:e-p270:32:32-p271:32:32-p272:64:64-i64:64-i128:128-f80:128-n8:16:32:64-S128"
target triple = "x86_64-pc-linux-gnu"

%struct.GlobalContext = type { %struct.HTable, ptr, ptr, ptr, ptr, ptr, ptr, ptr, ptr, i8, i32, i32, i32, ptr, ptr, %struct.HTable, %struct.HTable, %struct.Module_, %struct.DeclTable, %struct.DeclTable, %struct.Path_, ptr, ptr, ptr, ptr, ptr, ptr, ptr, [65536 x ptr], ptr, ptr, ptr }
%struct.HTable = type { i32, ptr }
%struct.Module_ = type { ptr, ptr, ptr, i16, i32, ptr, %struct.HTable, ptr, ptr, ptr, ptr, ptr, ptr, ptr, ptr, ptr }
%struct.DeclTable = type { i32, i32, i32, ptr }
%struct.Path_ = type { %union.SourceSpan, ptr, i32 }
%union.SourceSpan = type { i64 }
%struct.StringSlice_ = type { ptr, i64 }
%struct.VHeader_ = type { i32, i32, [0 x i8] }

@global_context = external global %struct.GlobalContext, align 8

; Function Attrs: nounwind uwtable
define internal ptr @vec_new_(i64 noundef %0, i64 noundef %1) #0 {
  %3 = alloca i64, align 8
  %4 = alloca i64, align 8
  %5 = alloca ptr, align 8
  store i64 %0, ptr %3, align 8
  store i64 %1, ptr %4, align 8
  %6 = load i64, ptr %3, align 8
  %7 = load i64, ptr %4, align 8
  %8 = mul i64 %6, %7
  %9 = add i64 %8, 8
  %10 = call ptr @calloc_arena(i64 noundef %9)
  store ptr %10, ptr %5, align 8
  %11 = load i64, ptr %4, align 8
  %12 = trunc i64 %11 to i32
  %13 = load ptr, ptr %5, align 8
  %14 = getelementptr inbounds %struct.VHeader_, ptr %13, i32 0, i32 1
  store i32 %12, ptr %14, align 4
  %15 = load ptr, ptr %5, align 8
  ret ptr %15
}

; Function Attrs: nounwind uwtable
define internal ptr @expand_(ptr noundef %0, i64 noundef %1) #0 {
  %3 = alloca ptr, align 8
  %4 = alloca i64, align 8
  %5 = alloca ptr, align 8
  %6 = alloca ptr, align 8
  %7 = alloca i64, align 8
  store ptr %0, ptr %3, align 8
  store i64 %1, ptr %4, align 8
  %8 = load ptr, ptr %3, align 8
  %9 = icmp ne ptr %8, null
  br i1 %9, label %13, label %10

10:                                               ; preds = %2
  %11 = load i64, ptr %4, align 8
  %12 = call ptr @vec_new_(i64 noundef %11, i64 noundef 8)
  store ptr %12, ptr %5, align 8
  br label %16

13:                                               ; preds = %2
  %14 = load ptr, ptr %3, align 8
  %15 = getelementptr inbounds %struct.VHeader_, ptr %14, i64 -1
  store ptr %15, ptr %5, align 8
  br label %16

16:                                               ; preds = %13, %10
  %17 = load ptr, ptr %5, align 8
  %18 = getelementptr inbounds %struct.VHeader_, ptr %17, i32 0, i32 0
  %19 = load i32, ptr %18, align 4
  %20 = load ptr, ptr %5, align 8
  %21 = getelementptr inbounds %struct.VHeader_, ptr %20, i32 0, i32 1
  %22 = load i32, ptr %21, align 4
  %23 = icmp eq i32 %19, %22
  br i1 %23, label %24, label %49

24:                                               ; preds = %16
  %25 = load i64, ptr %4, align 8
  %26 = load ptr, ptr %5, align 8
  %27 = getelementptr inbounds %struct.VHeader_, ptr %26, i32 0, i32 1
  %28 = load i32, ptr %27, align 4
  %29 = shl i32 %28, 1
  %30 = zext i32 %29 to i64
  %31 = call ptr @vec_new_(i64 noundef %25, i64 noundef %30)
  store ptr %31, ptr %6, align 8
  %32 = load i64, ptr %4, align 8
  %33 = load ptr, ptr %5, align 8
  %34 = getelementptr inbounds %struct.VHeader_, ptr %33, i32 0, i32 1
  %35 = load i32, ptr %34, align 4
  %36 = zext i32 %35 to i64
  %37 = mul i64 %32, %36
  %38 = add i64 %37, 8
  store i64 %38, ptr %7, align 8
  %39 = load ptr, ptr %6, align 8
  %40 = load ptr, ptr %5, align 8
  %41 = load i64, ptr %7, align 8
  call void @llvm.memcpy.p0.p0.i64(ptr align 4 %39, ptr align 4 %40, i64 %41, i1 false)
  %42 = load ptr, ptr %6, align 8
  store ptr %42, ptr %5, align 8
  %43 = load ptr, ptr %5, align 8
  %44 = getelementptr inbounds %struct.VHeader_, ptr %43, i32 0, i32 1
  %45 = load i32, ptr %44, align 4
  %46 = shl i32 %45, 1
  %47 = load ptr, ptr %6, align 8
  %48 = getelementptr inbounds %struct.VHeader_, ptr %47, i32 0, i32 1
  store i32 %46, ptr %48, align 4
  br label %49

49:                                               ; preds = %24, %16
  %50 = load ptr, ptr %5, align 8
  %51 = getelementptr inbounds %struct.VHeader_, ptr %50, i32 0, i32 0
  %52 = load i32, ptr %51, align 4
  %53 = add i32 %52, 1
  store i32 %53, ptr %51, align 4
  %54 = load ptr, ptr %5, align 8
  %55 = getelementptr inbounds %struct.VHeader_, ptr %54, i64 1
  ret ptr %55
}

; Function Attrs: nounwind uwtable
define dso_local void @parent_path(ptr noundef %0) #0 {
  %2 = alloca ptr, align 8
  %3 = alloca i32, align 4
  store ptr %0, ptr %2, align 8
  %4 = load ptr, ptr %2, align 8
  %5 = getelementptr inbounds %struct.StringSlice_, ptr %4, i32 0, i32 1
  %6 = load i64, ptr %5, align 8
  %7 = trunc i64 %6 to i32
  %8 = sub nsw i32 %7, 1
  store i32 %8, ptr %3, align 4
  br label %9

9:                                                ; preds = %29, %1
  %10 = load i32, ptr %3, align 4
  %11 = icmp sge i32 %10, 0
  br i1 %11, label %12, label %32

12:                                               ; preds = %9
  %13 = load ptr, ptr %2, align 8
  %14 = getelementptr inbounds %struct.StringSlice_, ptr %13, i32 0, i32 0
  %15 = load ptr, ptr %14, align 8
  %16 = load i32, ptr %3, align 4
  %17 = sext i32 %16 to i64
  %18 = getelementptr inbounds i8, ptr %15, i64 %17
  %19 = load i8, ptr %18, align 1
  %20 = sext i8 %19 to i32
  %21 = icmp eq i32 %20, 58
  br i1 %21, label %22, label %28

22:                                               ; preds = %12
  %23 = load i32, ptr %3, align 4
  %24 = sub nsw i32 %23, 1
  %25 = sext i32 %24 to i64
  %26 = load ptr, ptr %2, align 8
  %27 = getelementptr inbounds %struct.StringSlice_, ptr %26, i32 0, i32 1
  store i64 %25, ptr %27, align 8
  br label %35

28:                                               ; preds = %12
  br label %29

29:                                               ; preds = %28
  %30 = load i32, ptr %3, align 4
  %31 = add nsw i32 %30, -1
  store i32 %31, ptr %3, align 4
  br label %9, !llvm.loop !7

32:                                               ; preds = %9
  %33 = load ptr, ptr %2, align 8
  %34 = getelementptr inbounds %struct.StringSlice_, ptr %33, i32 0, i32 1
  store i64 0, ptr %34, align 8
  br label %35

35:                                               ; preds = %32, %22
  ret void
}

; Function Attrs: nounwind uwtable
define internal { ptr, i64 } @slice_from_string(ptr noundef %0) #0 {
  %2 = alloca %struct.StringSlice_, align 8
  %3 = alloca ptr, align 8
  store ptr %0, ptr %3, align 8
  %4 = getelementptr inbounds %struct.StringSlice_, ptr %2, i32 0, i32 0
  %5 = load ptr, ptr %3, align 8
  store ptr %5, ptr %4, align 8
  %6 = getelementptr inbounds %struct.StringSlice_, ptr %2, i32 0, i32 1
  %7 = load ptr, ptr %3, align 8
  %8 = call i64 @strlen(ptr noundef %7) #7
  store i64 %8, ptr %6, align 8
  %9 = load { ptr, i64 }, ptr %2, align 8
  ret { ptr, i64 } %9
}

; Function Attrs: nounwind uwtable
define dso_local void @sema_analyse_pass_module_hierarchy(ptr noundef %0) #0 {
  %2 = alloca i32, align 4
  %3 = alloca ptr, align 8
  %4 = alloca ptr, align 8
  %5 = alloca i32, align 4
  %6 = alloca ptr, align 8
  %7 = alloca ptr, align 8
  %8 = alloca i32, align 4
  %9 = alloca ptr, align 8
  %10 = alloca ptr, align 8
  %11 = alloca ptr, align 8
  %12 = alloca ptr, align 8
  %13 = alloca %struct.StringSlice_, align 8
  %14 = alloca i32, align 4
  %15 = alloca i32, align 4
  %16 = alloca ptr, align 8
  %17 = alloca ptr, align 8
  %18 = alloca ptr, align 8
  %19 = alloca ptr, align 8
  %20 = alloca ptr, align 8
  %21 = alloca ptr, align 8
  store ptr %0, ptr %11, align 8
  %22 = load ptr, ptr %11, align 8
  %23 = getelementptr inbounds %struct.Module_, ptr %22, i32 0, i32 0
  %24 = load ptr, ptr %23, align 8
  %25 = getelementptr inbounds %struct.Path_, ptr %24, i32 0, i32 1
  %26 = load ptr, ptr %25, align 8
  store ptr %26, ptr %12, align 8
  %27 = load ptr, ptr %12, align 8
  %28 = call { ptr, i64 } @slice_from_string(ptr noundef %27)
  %29 = getelementptr inbounds { ptr, i64 }, ptr %13, i32 0, i32 0
  %30 = extractvalue { ptr, i64 } %28, 0
  store ptr %30, ptr %29, align 8
  %31 = getelementptr inbounds { ptr, i64 }, ptr %13, i32 0, i32 1
  %32 = extractvalue { ptr, i64 } %28, 1
  store i64 %32, ptr %31, align 8
  call void @parent_path(ptr noundef %13)
  %33 = getelementptr inbounds %struct.StringSlice_, ptr %13, i32 0, i32 1
  %34 = load i64, ptr %33, align 8
  %35 = icmp ne i64 %34, 0
  br i1 %35, label %37, label %36

36:                                               ; preds = %1
  br label %167

37:                                               ; preds = %1
  %38 = load ptr, ptr getelementptr inbounds (%struct.GlobalContext, ptr @global_context, i32 0, i32 2), align 8
  store ptr %38, ptr %3, align 8
  %39 = load ptr, ptr %3, align 8
  %40 = icmp ne ptr %39, null
  br i1 %40, label %42, label %41

41:                                               ; preds = %37
  store i32 0, ptr %2, align 4
  br label %47

42:                                               ; preds = %37
  %43 = load ptr, ptr %3, align 8
  store ptr %43, ptr %4, align 8
  %44 = load ptr, ptr %4, align 8
  %45 = getelementptr inbounds %struct.VHeader_, ptr %44, i64 -1
  %46 = load i32, ptr %45, align 4
  store i32 %46, ptr %2, align 4
  br label %47

47:                                               ; preds = %42, %41
  %48 = load i32, ptr %2, align 4
  store i32 %48, ptr %14, align 4
  store i32 0, ptr %15, align 4
  br label %49

49:                                               ; preds = %114, %47
  %50 = load i32, ptr %15, align 4
  %51 = load i32, ptr %14, align 4
  %52 = icmp ult i32 %50, %51
  br i1 %52, label %53, label %117

53:                                               ; preds = %49
  %54 = load ptr, ptr getelementptr inbounds (%struct.GlobalContext, ptr @global_context, i32 0, i32 2), align 8
  %55 = load i32, ptr %15, align 4
  %56 = sext i32 %55 to i64
  %57 = getelementptr inbounds ptr, ptr %54, i64 %56
  %58 = load ptr, ptr %57, align 8
  store ptr %58, ptr %16, align 8
  %59 = load ptr, ptr %16, align 8
  %60 = getelementptr inbounds %struct.Module_, ptr %59, i32 0, i32 0
  %61 = load ptr, ptr %60, align 8
  store ptr %61, ptr %17, align 8
  %62 = load ptr, ptr %17, align 8
  %63 = getelementptr inbounds %struct.Path_, ptr %62, i32 0, i32 2
  %64 = load i32, ptr %63, align 8
  %65 = zext i32 %64 to i64
  %66 = getelementptr inbounds %struct.StringSlice_, ptr %13, i32 0, i32 1
  %67 = load i64, ptr %66, align 8
  %68 = icmp ne i64 %65, %67
  br i1 %68, label %69, label %70

69:                                               ; preds = %53
  br label %114

70:                                               ; preds = %53
  %71 = load ptr, ptr %17, align 8
  %72 = getelementptr inbounds %struct.Path_, ptr %71, i32 0, i32 1
  %73 = load ptr, ptr %72, align 8
  %74 = getelementptr inbounds %struct.StringSlice_, ptr %13, i32 0, i32 0
  %75 = load ptr, ptr %74, align 8
  %76 = getelementptr inbounds %struct.StringSlice_, ptr %13, i32 0, i32 1
  %77 = load i64, ptr %76, align 8
  %78 = call i32 @memcmp(ptr noundef %73, ptr noundef %75, i64 noundef %77) #7
  %79 = icmp eq i32 %78, 0
  br i1 %79, label %80, label %113

80:                                               ; preds = %70
  %81 = load ptr, ptr %16, align 8
  %82 = load ptr, ptr %11, align 8
  %83 = getelementptr inbounds %struct.Module_, ptr %82, i32 0, i32 9
  store ptr %81, ptr %83, align 8
  br label %84

84:                                               ; preds = %80
  %85 = load ptr, ptr %16, align 8
  %86 = getelementptr inbounds %struct.Module_, ptr %85, i32 0, i32 11
  %87 = load ptr, ptr %86, align 8
  %88 = call ptr @expand_(ptr noundef %87, i64 noundef 8)
  store ptr %88, ptr %18, align 8
  %89 = load ptr, ptr %18, align 8
  %90 = load ptr, ptr %16, align 8
  %91 = getelementptr inbounds %struct.Module_, ptr %90, i32 0, i32 11
  store ptr %89, ptr %91, align 8
  %92 = load ptr, ptr %11, align 8
  %93 = load ptr, ptr %16, align 8
  %94 = getelementptr inbounds %struct.Module_, ptr %93, i32 0, i32 11
  %95 = load ptr, ptr %94, align 8
  %96 = load ptr, ptr %16, align 8
  %97 = getelementptr inbounds %struct.Module_, ptr %96, i32 0, i32 11
  %98 = load ptr, ptr %97, align 8
  store ptr %98, ptr %6, align 8
  %99 = load ptr, ptr %6, align 8
  %100 = icmp ne ptr %99, null
  br i1 %100, label %102, label %101

101:                                              ; preds = %84
  store i32 0, ptr %5, align 4
  br label %107

102:                                              ; preds = %84
  %103 = load ptr, ptr %6, align 8
  store ptr %103, ptr %7, align 8
  %104 = load ptr, ptr %7, align 8
  %105 = getelementptr inbounds %struct.VHeader_, ptr %104, i64 -1
  %106 = load i32, ptr %105, align 4
  store i32 %106, ptr %5, align 4
  br label %107

107:                                              ; preds = %102, %101
  %108 = load i32, ptr %5, align 4
  %109 = sub i32 %108, 1
  %110 = zext i32 %109 to i64
  %111 = getelementptr inbounds ptr, ptr %95, i64 %110
  store ptr %92, ptr %111, align 8
  br label %112

112:                                              ; preds = %107
  br label %167

113:                                              ; preds = %70
  br label %114

114:                                              ; preds = %113, %69
  %115 = load i32, ptr %15, align 4
  %116 = add nsw i32 %115, 1
  store i32 %116, ptr %15, align 4
  br label %49, !llvm.loop !10

117:                                              ; preds = %49
  %118 = getelementptr inbounds %struct.StringSlice_, ptr %13, i32 0, i32 0
  %119 = load ptr, ptr %118, align 8
  %120 = getelementptr inbounds %struct.StringSlice_, ptr %13, i32 0, i32 1
  %121 = load i64, ptr %120, align 8
  %122 = trunc i64 %121 to i32
  %123 = load ptr, ptr %11, align 8
  %124 = getelementptr inbounds %struct.Module_, ptr %123, i32 0, i32 0
  %125 = load ptr, ptr %124, align 8
  %126 = getelementptr inbounds %struct.Path_, ptr %125, i32 0, i32 0
  %127 = getelementptr inbounds %union.SourceSpan, ptr %126, i32 0, i32 0
  %128 = load i64, ptr %127, align 8
  %129 = call ptr @path_create_from_string(ptr noundef %119, i32 noundef %122, i64 %128)
  store ptr %129, ptr %19, align 8
  br label %130

130:                                              ; preds = %117
  br label %131

131:                                              ; preds = %130
  %132 = load ptr, ptr %19, align 8
  %133 = call ptr @compiler_find_or_create_module(ptr noundef %132, ptr noundef null)
  store ptr %133, ptr %20, align 8
  %134 = load ptr, ptr %20, align 8
  %135 = load ptr, ptr %11, align 8
  %136 = getelementptr inbounds %struct.Module_, ptr %135, i32 0, i32 9
  store ptr %134, ptr %136, align 8
  br label %137

137:                                              ; preds = %131
  %138 = load ptr, ptr %20, align 8
  %139 = getelementptr inbounds %struct.Module_, ptr %138, i32 0, i32 11
  %140 = load ptr, ptr %139, align 8
  %141 = call ptr @expand_(ptr noundef %140, i64 noundef 8)
  store ptr %141, ptr %21, align 8
  %142 = load ptr, ptr %21, align 8
  %143 = load ptr, ptr %20, align 8
  %144 = getelementptr inbounds %struct.Module_, ptr %143, i32 0, i32 11
  store ptr %142, ptr %144, align 8
  %145 = load ptr, ptr %11, align 8
  %146 = load ptr, ptr %20, align 8
  %147 = getelementptr inbounds %struct.Module_, ptr %146, i32 0, i32 11
  %148 = load ptr, ptr %147, align 8
  %149 = load ptr, ptr %20, align 8
  %150 = getelementptr inbounds %struct.Module_, ptr %149, i32 0, i32 11
  %151 = load ptr, ptr %150, align 8
  store ptr %151, ptr %9, align 8
  %152 = load ptr, ptr %9, align 8
  %153 = icmp ne ptr %152, null
  br i1 %153, label %155, label %154

154:                                              ; preds = %137
  store i32 0, ptr %8, align 4
  br label %160

155:                                              ; preds = %137
  %156 = load ptr, ptr %9, align 8
  store ptr %156, ptr %10, align 8
  %157 = load ptr, ptr %10, align 8
  %158 = getelementptr inbounds %struct.VHeader_, ptr %157, i64 -1
  %159 = load i32, ptr %158, align 4
  store i32 %159, ptr %8, align 4
  br label %160

160:                                              ; preds = %155, %154
  %161 = load i32, ptr %8, align 4
  %162 = sub i32 %161, 1
  %163 = zext i32 %162 to i64
  %164 = getelementptr inbounds ptr, ptr %148, i64 %163
  store ptr %145, ptr %164, align 8
  br label %165

165:                                              ; preds = %160
  %166 = load ptr, ptr %20, align 8
  call void @sema_analyze_stage(ptr noundef %166, i32 noundef 1)
  br label %167

167:                                              ; preds = %165, %112, %36
  ret void
}