; Function Attrs: nounwind uwtable
define dso_local void @sema_analyse_pass_module_hierarchy(ptr noundef %0) local_unnamed_addr #1 {
  %2 = load ptr, ptr %0, align 8
  %3 = getelementptr inbounds i8, ptr %2, i64 8
  %4 = load ptr, ptr %3, align 8
  %5 = tail call i64 @strlen(ptr noundef nonnull dereferenceable(1) %4) #10
  %6 = and i64 %5, 4294967295
  br label %7

7:                                                ; preds = %10, %1
  %indvars.iv.i = phi i64 [ %11, %10 ], [ %6, %1 ]
  %8 = trunc nuw i64 %indvars.iv.i to i32
  %9 = icmp sgt i32 %8, 0
  br i1 %9, label %10, label %parent_path.exit.thread

10:                                               ; preds = %7
  %11 = add nsw i64 %indvars.iv.i, -1
  %12 = getelementptr inbounds i8, ptr %4, i64 %11
  %13 = load i8, ptr %12, align 1
  %14 = icmp eq i8 %13, 58
  br i1 %14, label %parent_path.exit, label %7, !llvm.loop !7

parent_path.exit:                                 ; preds = %10
  %15 = shl i64 %indvars.iv.i, 32
  %sext.i = add nsw i64 %15, -8589934592
  %16 = ashr exact i64 %sext.i, 32
  %.not = icmp eq i64 %sext.i, 0
  br i1 %.not, label %parent_path.exit.thread, label %17

17:                                               ; preds = %parent_path.exit
  %18 = load ptr, ptr getelementptr inbounds (%struct.GlobalContext, ptr @global_context, i64 0, i32 2), align 8
  %.not46 = icmp eq ptr %18, null
  br i1 %.not46, label %._crit_edge, label %19

19:                                               ; preds = %17
  %20 = getelementptr inbounds i8, ptr %18, i64 -8
  %21 = load i32, ptr %20, align 4
  %.not66 = icmp eq i32 %21, 0
  br i1 %.not66, label %._crit_edge, label %.lr.ph.preheader

.lr.ph.preheader:                                 ; preds = %19
  %wide.trip.count = zext i32 %21 to i64
  br label %.lr.ph

.lr.ph:                                           ; preds = %.lr.ph.preheader, %67
  %indvars.iv = phi i64 [ 0, %.lr.ph.preheader ], [ %indvars.iv.next, %67 ]
  %22 = getelementptr inbounds ptr, ptr %18, i64 %indvars.iv
  %23 = load ptr, ptr %22, align 8
  %24 = load ptr, ptr %23, align 8
  %25 = getelementptr inbounds i8, ptr %24, i64 16
  %26 = load i32, ptr %25, align 8
  %27 = zext i32 %26 to i64
  %.not48 = icmp eq i64 %16, %27
  br i1 %.not48, label %28, label %67

28:                                               ; preds = %.lr.ph
  %29 = getelementptr inbounds i8, ptr %24, i64 8
  %30 = load ptr, ptr %29, align 8
  %bcmp = tail call i32 @bcmp(ptr %30, ptr %4, i64 %16)
  %31 = icmp eq i32 %bcmp, 0
  br i1 %31, label %32, label %67

32:                                               ; preds = %28
  %33 = getelementptr inbounds i8, ptr %0, i64 72
  store ptr %23, ptr %33, align 8
  %34 = getelementptr inbounds i8, ptr %23, i64 88
  %35 = load ptr, ptr %34, align 8
  %.not.i = icmp eq ptr %35, null
  br i1 %.not.i, label %36, label %39

36:                                               ; preds = %32
  %37 = tail call ptr @calloc_arena(i64 noundef 72) #11
  %38 = getelementptr inbounds i8, ptr %37, i64 4
  store i32 8, ptr %38, align 4
  br label %41

39:                                               ; preds = %32
  %40 = getelementptr inbounds i8, ptr %35, i64 -8
  %.phi.trans.insert.i = getelementptr inbounds i8, ptr %35, i64 -4
  %.pre.i = load i32, ptr %.phi.trans.insert.i, align 4
  br label %41

41:                                               ; preds = %39, %36
  %42 = phi i32 [ %.pre.i, %39 ], [ 8, %36 ]
  %.0.i = phi ptr [ %40, %39 ], [ %37, %36 ]
  %43 = load i32, ptr %.0.i, align 4
  %44 = icmp eq i32 %43, %42
  br i1 %44, label %45, label %59

45:                                               ; preds = %41
  %46 = getelementptr inbounds i8, ptr %.0.i, i64 4
  %47 = shl i32 %42, 1
  %48 = zext i32 %47 to i64
  %49 = shl nuw nsw i64 %48, 3
  %50 = or disjoint i64 %49, 8
  %51 = tail call ptr @calloc_arena(i64 noundef %50) #11
  %52 = getelementptr inbounds i8, ptr %51, i64 4
  store i32 %47, ptr %52, align 4
  %53 = load i32, ptr %46, align 4
  %54 = zext i32 %53 to i64
  %55 = shl nuw nsw i64 %54, 3
  %56 = add nuw nsw i64 %55, 8
  tail call void @llvm.memcpy.p0.p0.i64(ptr noundef nonnull align 4 dereferenceable(1) %51, ptr noundef nonnull align 4 dereferenceable(1) %.0.i, i64 %56, i1 false)
  %57 = load i32, ptr %52, align 4
  %58 = shl i32 %57, 1
  store i32 %58, ptr %52, align 4
  %.pre18.i = load i32, ptr %51, align 4
  br label %59

59:                                               ; preds = %41, %45
  %60 = phi i32 [ %.pre18.i, %45 ], [ %43, %41 ]
  %.1.i = phi ptr [ %51, %45 ], [ %.0.i, %41 ]
  %61 = add i32 %60, 1
  store i32 %61, ptr %.1.i, align 4
  %62 = getelementptr inbounds i8, ptr %.1.i, i64 8
  store ptr %62, ptr %34, align 8
  %63 = load i32, ptr %.1.i, align 4
  %64 = add i32 %63, -1
  %65 = zext i32 %64 to i64
  %66 = getelementptr inbounds ptr, ptr %62, i64 %65
  store ptr %0, ptr %66, align 8
  br label %parent_path.exit.thread

67:                                               ; preds = %28, %.lr.ph
  %indvars.iv.next = add nuw nsw i64 %indvars.iv, 1
  %exitcond.not = icmp eq i64 %indvars.iv.next, %wide.trip.count
  br i1 %exitcond.not, label %._crit_edge, label %.lr.ph, !llvm.loop !10

._crit_edge:                                      ; preds = %67, %17, %19
  %68 = trunc nsw i64 %16 to i32
  %69 = load i64, ptr %2, align 8
  %70 = tail call ptr @path_create_from_string(ptr noundef %4, i32 noundef %68, i64 %69) #11
  %71 = tail call ptr @compiler_find_or_create_module(ptr noundef %70, ptr noundef null) #11
  %72 = getelementptr inbounds i8, ptr %0, i64 72
  store ptr %71, ptr %72, align 8
  %73 = getelementptr inbounds i8, ptr %71, i64 88
  %74 = load ptr, ptr %73, align 8
  %.not.i50 = icmp eq ptr %74, null
  br i1 %.not.i50, label %75, label %78

75:                                               ; preds = %._crit_edge
  %76 = tail call ptr @calloc_arena(i64 noundef 72) #11
  %77 = getelementptr inbounds i8, ptr %76, i64 4
  store i32 8, ptr %77, align 4
  br label %80

78:                                               ; preds = %._crit_edge
  %79 = getelementptr inbounds i8, ptr %74, i64 -8
  %.phi.trans.insert.i51 = getelementptr inbounds i8, ptr %74, i64 -4
  %.pre.i52 = load i32, ptr %.phi.trans.insert.i51, align 4
  br label %80

80:                                               ; preds = %78, %75
  %81 = phi i32 [ %.pre.i52, %78 ], [ 8, %75 ]
  %.0.i53 = phi ptr [ %79, %78 ], [ %76, %75 ]
  %82 = load i32, ptr %.0.i53, align 4
  %83 = icmp eq i32 %82, %81
  br i1 %83, label %84, label %98

84:                                               ; preds = %80
  %85 = getelementptr inbounds i8, ptr %.0.i53, i64 4
  %86 = shl i32 %81, 1
  %87 = zext i32 %86 to i64
  %88 = shl nuw nsw i64 %87, 3
  %89 = or disjoint i64 %88, 8
  %90 = tail call ptr @calloc_arena(i64 noundef %89) #11
  %91 = getelementptr inbounds i8, ptr %90, i64 4
  store i32 %86, ptr %91, align 4
  %92 = load i32, ptr %85, align 4
  %93 = zext i32 %92 to i64
  %94 = shl nuw nsw i64 %93, 3
  %95 = add nuw nsw i64 %94, 8
  tail call void @llvm.memcpy.p0.p0.i64(ptr noundef nonnull align 4 dereferenceable(1) %90, ptr noundef nonnull align 4 dereferenceable(1) %.0.i53, i64 %95, i1 false)
  %96 = load i32, ptr %91, align 4
  %97 = shl i32 %96, 1
  store i32 %97, ptr %91, align 4
  %.pre18.i55 = load i32, ptr %90, align 4
  br label %98

98:                                               ; preds = %80, %84
  %99 = phi i32 [ %.pre18.i55, %84 ], [ %82, %80 ]
  %.1.i54 = phi ptr [ %90, %84 ], [ %.0.i53, %80 ]
  %100 = add i32 %99, 1
  store i32 %100, ptr %.1.i54, align 4
  %101 = getelementptr inbounds i8, ptr %.1.i54, i64 8
  store ptr %101, ptr %73, align 8
  %102 = load i32, ptr %.1.i54, align 4
  %103 = add i32 %102, -1
  %104 = zext i32 %103 to i64
  %105 = getelementptr inbounds ptr, ptr %101, i64 %104
  store ptr %0, ptr %105, align 8
  tail call void @sema_analyze_stage(ptr noundef nonnull %71, i32 noundef 1) #11
  br label %parent_path.exit.thread

parent_path.exit.thread:                          ; preds = %7, %parent_path.exit, %98, %59
  ret void
}